; Function Attrs: nounwind uwtable
define void @zend_objects_store_put(ptr noundef %0) local_unnamed_addr #0 {
  %2 = load i32, ptr getelementptr inbounds (%struct._zend_executor_globals, ptr @executor_globals, i64 0, i32 49, i32 3), align 8
  %.not = icmp eq i32 %2, -1
  br i1 %.not, label %14, label %3

3:                                                ; preds = %1
  %4 = load i8, ptr getelementptr inbounds (%struct._zend_executor_globals, ptr @executor_globals, i64 0, i32 56), align 1
  %5 = and i8 %4, 2
  %.not7 = icmp eq i8 %5, 0
  br i1 %.not7, label %6, label %14

6:                                                ; preds = %3
  %7 = load ptr, ptr getelementptr inbounds (%struct._zend_executor_globals, ptr @executor_globals, i64 0, i32 49), align 8
  %8 = sext i32 %2 to i64
  %9 = getelementptr inbounds ptr, ptr %7, i64 %8
  %10 = load ptr, ptr %9, align 8
  %11 = ptrtoint ptr %10 to i64
  %12 = lshr i64 %11, 1
  %13 = trunc i64 %12 to i32
  store i32 %13, ptr getelementptr inbounds (%struct._zend_executor_globals, ptr @executor_globals, i64 0, i32 49, i32 3), align 8
  br label %32

14:                                               ; preds = %3, %1
  %15 = load i32, ptr getelementptr inbounds (%struct._zend_executor_globals, ptr @executor_globals, i64 0, i32 49, i32 1), align 8
  %16 = load i32, ptr getelementptr inbounds (%struct._zend_executor_globals, ptr @executor_globals, i64 0, i32 49, i32 2), align 4
  %17 = icmp eq i32 %15, %16
  br i1 %17, label %18, label %30

18:                                               ; preds = %14
  %19 = shl i32 %15, 1
  %20 = load ptr, ptr getelementptr inbounds (%struct._zend_executor_globals, ptr @executor_globals, i64 0, i32 49), align 8
  %21 = zext i32 %19 to i64
  %22 = shl nuw nsw i64 %21, 3
  %23 = tail call ptr @_erealloc(ptr noundef %20, i64 noundef %22) #8
  store ptr %23, ptr getelementptr inbounds (%struct._zend_executor_globals, ptr @executor_globals, i64 0, i32 49), align 8
  store i32 %19, ptr getelementptr inbounds (%struct._zend_executor_globals, ptr @executor_globals, i64 0, i32 49, i32 2), align 4
  %24 = load i32, ptr getelementptr inbounds (%struct._zend_executor_globals, ptr @executor_globals, i64 0, i32 49, i32 1), align 8
  %25 = add i32 %24, 1
  store i32 %25, ptr getelementptr inbounds (%struct._zend_executor_globals, ptr @executor_globals, i64 0, i32 49, i32 1), align 8
  %26 = getelementptr inbounds i8, ptr %0, i64 8
  store i32 %24, ptr %26, align 8
  %27 = load ptr, ptr getelementptr inbounds (%struct._zend_executor_globals, ptr @executor_globals, i64 0, i32 49), align 8
  %28 = sext i32 %24 to i64
  %29 = getelementptr inbounds ptr, ptr %27, i64 %28
  br label %36

30:                                               ; preds = %14
  %31 = add i32 %15, 1
  store i32 %31, ptr getelementptr inbounds (%struct._zend_executor_globals, ptr @executor_globals, i64 0, i32 49, i32 1), align 8
  %.pre = sext i32 %15 to i64
  br label %32

32:                                               ; preds = %30, %6
  %.pre-phi = phi i64 [ %.pre, %30 ], [ %8, %6 ]
  %.0 = phi i32 [ %15, %30 ], [ %2, %6 ]
  %33 = getelementptr inbounds i8, ptr %0, i64 8
  store i32 %.0, ptr %33, align 8
  %34 = load ptr, ptr getelementptr inbounds (%struct._zend_executor_globals, ptr @executor_globals, i64 0, i32 49), align 8
  %35 = getelementptr inbounds ptr, ptr %34, i64 %.pre-phi
  br label %36

36:                                               ; preds = %32, %18
  %.sink = phi ptr [ %35, %32 ], [ %29, %18 ]
  store ptr %0, ptr %.sink, align 8
  ret void
}